target datalayout = "e-m:e-p270:32:32-p271:32:32-p272:64:64-i64:64-i128:128-f80:128-n8:16:32:64-S128"
target triple = "x86_64-pc-linux-gnu"

%struct.dasm_State = type { i64, ptr, ptr, i64, ptr, i64, ptr, ptr, i64, i32, i32, [1 x %struct.dasm_Section] }
%struct.dasm_Section = type { ptr, ptr, i64, i32, i32, i32 }

; Function Attrs: nounwind uwtable
define hidden void @dasm_init(ptr noundef %0, i32 noundef %1) #0 {
  %3 = alloca ptr, align 8
  %4 = alloca i32, align 4
  %5 = alloca ptr, align 8
  %6 = alloca i64, align 8
  %7 = alloca i64, align 8
  %8 = alloca i64, align 8
  store ptr %0, ptr %3, align 8
  store i32 %1, ptr %4, align 4
  store i64 0, ptr %6, align 8
  %9 = load ptr, ptr %3, align 8
  store ptr null, ptr %9, align 8
  br label %10

10:                                               ; preds = %2
  %11 = load i64, ptr %6, align 8
  store i64 %11, ptr %7, align 8
  %12 = load i32, ptr %4, align 4
  %13 = sub nsw i32 %12, 1
  %14 = sext i32 %13 to i64
  %15 = mul i64 %14, 40
  %16 = add i64 120, %15
  store i64 %16, ptr %8, align 8
  %17 = load i64, ptr %7, align 8
  %18 = load i64, ptr %8, align 8
  %19 = icmp ult i64 %17, %18
  br i1 %19, label %20, label %40

20:                                               ; preds = %10
  %21 = load i64, ptr %7, align 8
  %22 = icmp ult i64 %21, 16
  br i1 %22, label %23, label %24

23:                                               ; preds = %20
  store i64 16, ptr %7, align 8
  br label %24

24:                                               ; preds = %23, %20
  br label %25

25:                                               ; preds = %29, %24
  %26 = load i64, ptr %7, align 8
  %27 = load i64, ptr %8, align 8
  %28 = icmp ult i64 %26, %27
  br i1 %28, label %29, label %33

29:                                               ; preds = %25
  %30 = load i64, ptr %7, align 8
  %31 = load i64, ptr %7, align 8
  %32 = add i64 %31, %30
  store i64 %32, ptr %7, align 8
  br label %25

33:                                               ; preds = %25
  %34 = load ptr, ptr %3, align 8
  %35 = load ptr, ptr %34, align 8
  %36 = load i64, ptr %7, align 8
  %37 = call ptr @_erealloc(ptr noundef %35, i64 noundef %36) #12
  %38 = load ptr, ptr %3, align 8
  store ptr %37, ptr %38, align 8
  %39 = load i64, ptr %7, align 8
  store i64 %39, ptr %6, align 8
  br label %40

40:                                               ; preds = %33, %10
  br label %41

41:                                               ; preds = %40
  %42 = load ptr, ptr %3, align 8
  %43 = load ptr, ptr %42, align 8
  store ptr %43, ptr %5, align 8
  %44 = load i64, ptr %6, align 8
  %45 = load ptr, ptr %5, align 8
  %46 = getelementptr inbounds %struct.dasm_State, ptr %45, i32 0, i32 0
  store i64 %44, ptr %46, align 8
  %47 = load ptr, ptr %5, align 8
  %48 = getelementptr inbounds %struct.dasm_State, ptr %47, i32 0, i32 2
  store ptr null, ptr %48, align 8
  %49 = load ptr, ptr %5, align 8
  %50 = getelementptr inbounds %struct.dasm_State, ptr %49, i32 0, i32 3
  store i64 0, ptr %50, align 8
  %51 = load ptr, ptr %5, align 8
  %52 = getelementptr inbounds %struct.dasm_State, ptr %51, i32 0, i32 4
  store ptr null, ptr %52, align 8
  %53 = load ptr, ptr %5, align 8
  %54 = getelementptr inbounds %struct.dasm_State, ptr %53, i32 0, i32 5
  store i64 0, ptr %54, align 8
  %55 = load ptr, ptr %5, align 8
  %56 = getelementptr inbounds %struct.dasm_State, ptr %55, i32 0, i32 6
  store ptr null, ptr %56, align 8
  %57 = load i32, ptr %4, align 4
  %58 = load ptr, ptr %5, align 8
  %59 = getelementptr inbounds %struct.dasm_State, ptr %58, i32 0, i32 9
  store i32 %57, ptr %59, align 8
  %60 = load ptr, ptr %5, align 8
  %61 = getelementptr inbounds %struct.dasm_State, ptr %60, i32 0, i32 11
  %62 = getelementptr inbounds [1 x %struct.dasm_Section], ptr %61, i64 0, i64 0
  %63 = load i32, ptr %4, align 4
  %64 = sext i32 %63 to i64
  %65 = mul i64 %64, 40
  call void @llvm.memset.p0.i64(ptr align 8 %62, i8 0, i64 %65, i1 false)
  ret void
}