; Function Attrs: nounwind uwtable
define hidden void @dasm_init(ptr nocapture noundef writeonly %0, i32 noundef %1) local_unnamed_addr #1 {
  store ptr null, ptr %0, align 8
  %3 = add nsw i32 %1, -1
  %4 = sext i32 %3 to i64
  %5 = mul nsw i64 %4, 40
  %6 = add nsw i64 %5, 120
  %.not = icmp ne i64 %6, 0
  tail call void @llvm.assume(i1 %.not)
  br label %.preheader

.preheader:                                       ; preds = %2, %.preheader
  %.025 = phi i64 [ %8, %.preheader ], [ 16, %2 ]
  %7 = icmp ult i64 %.025, %6
  %8 = shl i64 %.025, 1
  br i1 %7, label %.preheader, label %9

9:                                                ; preds = %.preheader
  %10 = tail call ptr @_erealloc(ptr noundef null, i64 noundef %.025) #23
  store ptr %10, ptr %0, align 8
  store i64 %.025, ptr %10, align 8
  %11 = getelementptr inbounds i8, ptr %10, i64 16
  %12 = getelementptr inbounds i8, ptr %10, i64 72
  tail call void @llvm.memset.p0.i64(ptr noundef nonnull align 8 dereferenceable(40) %11, i8 0, i64 40, i1 false)
  store i32 %1, ptr %12, align 8
  %13 = getelementptr inbounds i8, ptr %10, i64 80
  %14 = sext i32 %1 to i64
  %15 = mul nsw i64 %14, 40
  tail call void @llvm.memset.p0.i64(ptr nonnull align 8 %13, i8 0, i64 %15, i1 false)
  ret void
}